target datalayout = "e-m:e-p270:32:32-p271:32:32-p272:64:64-i64:64-i128:128-f80:128-n8:16:32:64-S128"
target triple = "x86_64-pc-linux-gnu"

%"class.arrow::Status" = type { ptr }
%"class.std::shared_ptr.7" = type { %"class.std::__shared_ptr.8" }
%"class.std::__shared_ptr.8" = type { ptr, %"class.std::__shared_count" }
%"class.std::__shared_count" = type { ptr }
%"class.std::shared_ptr.10" = type { %"class.std::__shared_ptr.11" }
%"class.std::__shared_ptr.11" = type { ptr, %"class.std::__shared_count" }
%"class.arrow::(anonymous namespace)::RangeDataEqualsImpl" = type <{ ptr, i8, [7 x i8], ptr, ptr, i64, i64, i64, i8, [7 x i8] }>
%"struct.arrow::ArrayData" = type { %"class.std::shared_ptr.7", i64, %"struct.std::atomic.39", i64, %"class.std::vector.41", %"class.std::vector.46", %"class.std::shared_ptr", %"class.std::shared_ptr.51" }
%"struct.std::atomic.39" = type { %"struct.std::__atomic_base.40" }
%"struct.std::__atomic_base.40" = type { i64 }
%"class.std::vector.41" = type { %"struct.std::_Vector_base.42" }
%"struct.std::_Vector_base.42" = type { %"struct.std::_Vector_base<std::shared_ptr<arrow::Buffer>, std::allocator<std::shared_ptr<arrow::Buffer>>>::_Vector_impl" }
%"struct.std::_Vector_base<std::shared_ptr<arrow::Buffer>, std::allocator<std::shared_ptr<arrow::Buffer>>>::_Vector_impl" = type { %"struct.std::_Vector_base<std::shared_ptr<arrow::Buffer>, std::allocator<std::shared_ptr<arrow::Buffer>>>::_Vector_impl_data" }
%"struct.std::_Vector_base<std::shared_ptr<arrow::Buffer>, std::allocator<std::shared_ptr<arrow::Buffer>>>::_Vector_impl_data" = type { ptr, ptr, ptr }
%"class.std::vector.46" = type { %"struct.std::_Vector_base.47" }
%"struct.std::_Vector_base.47" = type { %"struct.std::_Vector_base<std::shared_ptr<arrow::ArrayData>, std::allocator<std::shared_ptr<arrow::ArrayData>>>::_Vector_impl" }
%"struct.std::_Vector_base<std::shared_ptr<arrow::ArrayData>, std::allocator<std::shared_ptr<arrow::ArrayData>>>::_Vector_impl" = type { %"struct.std::_Vector_base<std::shared_ptr<arrow::ArrayData>, std::allocator<std::shared_ptr<arrow::ArrayData>>>::_Vector_impl_data" }
%"struct.std::_Vector_base<std::shared_ptr<arrow::ArrayData>, std::allocator<std::shared_ptr<arrow::ArrayData>>>::_Vector_impl_data" = type { ptr, ptr, ptr }
%"class.std::shared_ptr" = type { %"class.std::__shared_ptr" }
%"class.std::__shared_ptr" = type { ptr, %"class.std::__shared_count" }
%"class.std::shared_ptr.51" = type { %"class.std::__shared_ptr.52" }
%"class.std::__shared_ptr.52" = type { ptr, %"class.std::__shared_count" }
%class.anon = type { ptr, ptr, ptr }
%"class.arrow::internal::BaseSetBitRunReader" = type <{ ptr, i64, i64, i64, i32, [4 x i8] }>
%"struct.arrow::internal::SetBitRun" = type { i64, i64 }
%"class.arrow::Buffer" = type { ptr, i8, i8, ptr, i64, i64, i8, %"class.std::shared_ptr.10", %"class.std::shared_ptr.92" }
%"class.std::shared_ptr.92" = type { %"class.std::__shared_ptr.93" }
%"class.std::__shared_ptr.93" = type { ptr, %"class.std::__shared_count" }

; Function Attrs: mustprogress nounwind uwtable
define linkonce_odr noundef ptr @_ZNKSt12__shared_ptrIN5arrow6BufferELN9__gnu_cxx12_Lock_policyE2EE3getEv(ptr noundef nonnull align 8 dereferenceable(16) %0) #0 comdat align 2 {
  %2 = alloca ptr, align 8
  store ptr %0, ptr %2, align 8, !tbaa !322
  %3 = load ptr, ptr %2, align 8
  %4 = getelementptr inbounds nuw %"class.std::__shared_ptr.11", ptr %3, i32 0, i32 0
  %5 = load ptr, ptr %4, align 8, !tbaa !324
  ret ptr %5
}

; Function Attrs: mustprogress nounwind uwtable
define linkonce_odr noundef ptr @_ZNKSt19__shared_ptr_accessIN5arrow6BufferELN9__gnu_cxx12_Lock_policyE2ELb0ELb0EE6_M_getEv(ptr noundef nonnull align 1 dereferenceable(1) %0) #0 comdat align 2 {
  %2 = alloca ptr, align 8
  store ptr %0, ptr %2, align 8, !tbaa !327
  %3 = load ptr, ptr %2, align 8
  %4 = call noundef ptr @_ZNKSt12__shared_ptrIN5arrow6BufferELN9__gnu_cxx12_Lock_policyE2EE3getEv(ptr noundef nonnull align 8 dereferenceable(16) %3) #20
  ret ptr %4
}

; Function Attrs: mustprogress nounwind uwtable
define linkonce_odr void @_ZN5arrow6StatusC2Ev(ptr noundef nonnull align 8 dereferenceable(8) %0) unnamed_addr #0 comdat align 2 {
  %2 = alloca ptr, align 8
  store ptr %0, ptr %2, align 8, !tbaa !129
  %3 = load ptr, ptr %2, align 8
  %4 = getelementptr inbounds nuw %"class.arrow::Status", ptr %3, i32 0, i32 0
  store ptr null, ptr %4, align 8, !tbaa !131
  ret void
}

; Function Attrs: mustprogress nounwind uwtable
define linkonce_odr noundef ptr @_ZNK5arrow6Buffer4dataEv(ptr noundef nonnull align 8 dereferenceable(80) %0) #0 comdat align 2 {
  %2 = alloca ptr, align 8
  store ptr %0, ptr %2, align 8, !tbaa !329
  %3 = load ptr, ptr %2, align 8
  %4 = getelementptr inbounds nuw %"class.arrow::Buffer", ptr %3, i32 0, i32 2
  %5 = load i8, ptr %4, align 1, !tbaa !330, !range !59, !noundef !60
  %6 = trunc i8 %5 to i1
  %7 = xor i1 %6, true
  %8 = xor i1 %7, true
  %9 = zext i1 %8 to i64
  %10 = call i64 @llvm.expect.i64(i64 %9, i64 1)
  %11 = icmp ne i64 %10, 0
  br i1 %11, label %12, label %15

12:                                               ; preds = %1
  %13 = getelementptr inbounds nuw %"class.arrow::Buffer", ptr %3, i32 0, i32 3
  %14 = load ptr, ptr %13, align 8, !tbaa !337
  br label %16

15:                                               ; preds = %1
  br label %16

16:                                               ; preds = %15, %12
  %17 = phi ptr [ %14, %12 ], [ null, %15 ]
  ret ptr %17
}

; Function Attrs: mustprogress nounwind uwtable
define linkonce_odr noundef ptr @_ZNKSt19__shared_ptr_accessIN5arrow6BufferELN9__gnu_cxx12_Lock_policyE2ELb0ELb0EEptEv(ptr noundef nonnull align 1 dereferenceable(1) %0) #0 comdat align 2 {
  %2 = alloca ptr, align 8
  store ptr %0, ptr %2, align 8, !tbaa !327
  %3 = load ptr, ptr %2, align 8
  %4 = call noundef ptr @_ZNKSt19__shared_ptr_accessIN5arrow6BufferELN9__gnu_cxx12_Lock_policyE2ELb0ELb0EE6_M_getEv(ptr noundef nonnull align 1 dereferenceable(1) %3) #20
  ret ptr %4
}

; Function Attrs: mustprogress nounwind uwtable
define linkonce_odr noundef zeroext i1 @_ZNKSt12__shared_ptrIN5arrow6BufferELN9__gnu_cxx12_Lock_policyE2EEcvbEv(ptr noundef nonnull align 8 dereferenceable(16) %0) #0 comdat align 2 {
  %2 = alloca ptr, align 8
  store ptr %0, ptr %2, align 8, !tbaa !322
  %3 = load ptr, ptr %2, align 8
  %4 = getelementptr inbounds nuw %"class.std::__shared_ptr.11", ptr %3, i32 0, i32 0
  %5 = load ptr, ptr %4, align 8, !tbaa !324
  %6 = icmp ne ptr %5, null
  ret i1 %6
}

; Function Attrs: mustprogress nounwind uwtable
define linkonce_odr noundef nonnull align 8 dereferenceable(16) ptr @_ZNKSt6vectorISt10shared_ptrIN5arrow6BufferEESaIS3_EEixEm(ptr noundef nonnull align 8 dereferenceable(24) %0, i64 noundef %1) #0 comdat align 2 {
  %3 = alloca ptr, align 8
  %4 = alloca i64, align 8
  store ptr %0, ptr %3, align 8, !tbaa !212
  store i64 %1, ptr %4, align 8, !tbaa !43
  %5 = load ptr, ptr %3, align 8
  %6 = getelementptr inbounds nuw %"struct.std::_Vector_base.42", ptr %5, i32 0, i32 0
  %7 = getelementptr inbounds nuw %"struct.std::_Vector_base<std::shared_ptr<arrow::Buffer>, std::allocator<std::shared_ptr<arrow::Buffer>>>::_Vector_impl_data", ptr %6, i32 0, i32 0
  %8 = load ptr, ptr %7, align 8, !tbaa !214
  %9 = load i64, ptr %4, align 8, !tbaa !43
  %10 = getelementptr inbounds nuw %"class.std::shared_ptr.10", ptr %8, i64 %9
  ret ptr %10
}

; Function Attrs: mustprogress nounwind uwtable
define linkonce_odr void @_ZN5arrow6Status2OKEv(ptr dead_on_unwind noalias writable sret(%"class.arrow::Status") align 8 %0) #0 comdat align 2 {
  %2 = alloca ptr, align 8
  store ptr %0, ptr %2, align 8
  call void @_ZN5arrow6StatusC2Ev(ptr noundef nonnull align 8 dereferenceable(8) %0) #20
  ret void
}

; Function Attrs: mustprogress uwtable
define internal void @_ZN5arrow12_GLOBAL__N_119RangeDataEqualsImpl14VisitValidRunsIRZNS1_5VisitERKNS_11BooleanTypeEEUlllE_EEvOT_(ptr noundef nonnull align 8 dereferenceable(57) %0, ptr noundef nonnull align 8 dereferenceable(24) %1) #1 align 2 {
  %3 = alloca ptr, align 8
  %4 = alloca ptr, align 8
  %5 = alloca ptr, align 8
  %6 = alloca i32, align 4
  %7 = alloca %"class.arrow::internal::BaseSetBitRunReader", align 8
  %8 = alloca %"struct.arrow::internal::SetBitRun", align 8
  store ptr %0, ptr %3, align 8, !tbaa !182
  store ptr %1, ptr %4, align 8, !tbaa !317
  %9 = load ptr, ptr %3, align 8
  call void @llvm.lifetime.start.p0(i64 8, ptr %5) #20
  %10 = getelementptr inbounds nuw %"class.arrow::(anonymous namespace)::RangeDataEqualsImpl", ptr %9, i32 0, i32 3
  %11 = load ptr, ptr %10, align 8, !tbaa !190
  %12 = call noundef ptr @_ZNK5arrow9ArrayData9GetValuesIhEEPKT_il(ptr noundef nonnull align 8 dereferenceable(120) %11, i32 noundef 0, i64 noundef 0)
  store ptr %12, ptr %5, align 8, !tbaa !87
  %13 = load ptr, ptr %5, align 8, !tbaa !87
  %14 = icmp eq ptr %13, null
  br i1 %14, label %15, label %22

15:                                               ; preds = %2
  %16 = load ptr, ptr %4, align 8, !tbaa !317
  %17 = getelementptr inbounds nuw %"class.arrow::(anonymous namespace)::RangeDataEqualsImpl", ptr %9, i32 0, i32 7
  %18 = load i64, ptr %17, align 8, !tbaa !188
  %19 = call noundef zeroext i1 @_ZZN5arrow12_GLOBAL__N_119RangeDataEqualsImpl5VisitERKNS_11BooleanTypeEENKUlllE_clEll(ptr noundef nonnull align 8 dereferenceable(24) %16, i64 noundef 0, i64 noundef %18)
  %20 = getelementptr inbounds nuw %"class.arrow::(anonymous namespace)::RangeDataEqualsImpl", ptr %9, i32 0, i32 8
  %21 = zext i1 %19 to i8
  store i8 %21, ptr %20, align 8, !tbaa !189
  store i32 1, ptr %6, align 4
  br label %58

22:                                               ; preds = %2
  call void @llvm.lifetime.start.p0(i64 40, ptr %7) #20
  %23 = load ptr, ptr %5, align 8, !tbaa !87
  %24 = getelementptr inbounds nuw %"class.arrow::(anonymous namespace)::RangeDataEqualsImpl", ptr %9, i32 0, i32 3
  %25 = load ptr, ptr %24, align 8, !tbaa !190
  %26 = getelementptr inbounds nuw %"struct.arrow::ArrayData", ptr %25, i32 0, i32 3
  %27 = load i64, ptr %26, align 8, !tbaa !192
  %28 = getelementptr inbounds nuw %"class.arrow::(anonymous namespace)::RangeDataEqualsImpl", ptr %9, i32 0, i32 5
  %29 = load i64, ptr %28, align 8, !tbaa !186
  %30 = add nsw i64 %27, %29
  %31 = getelementptr inbounds nuw %"class.arrow::(anonymous namespace)::RangeDataEqualsImpl", ptr %9, i32 0, i32 7
  %32 = load i64, ptr %31, align 8, !tbaa !188
  call void @_ZN5arrow8internal19BaseSetBitRunReaderILb0EEC2EPKhll(ptr noundef nonnull align 8 dereferenceable(36) %7, ptr noundef %23, i64 noundef %30, i64 noundef %32)
  br label %33

33:                                               ; preds = %56, %22
  br label %34

34:                                               ; preds = %33
  call void @llvm.lifetime.start.p0(i64 16, ptr %8) #20
  %35 = call { i64, i64 } @_ZN5arrow8internal19BaseSetBitRunReaderILb0EE7NextRunEv(ptr noundef nonnull align 8 dereferenceable(36) %7)
  %36 = getelementptr inbounds nuw { i64, i64 }, ptr %8, i32 0, i32 0
  %37 = extractvalue { i64, i64 } %35, 0
  store i64 %37, ptr %36, align 8
  %38 = getelementptr inbounds nuw { i64, i64 }, ptr %8, i32 0, i32 1
  %39 = extractvalue { i64, i64 } %35, 1
  store i64 %39, ptr %38, align 8
  %40 = getelementptr inbounds nuw %"struct.arrow::internal::SetBitRun", ptr %8, i32 0, i32 1
  %41 = load i64, ptr %40, align 8, !tbaa !318
  %42 = icmp eq i64 %41, 0
  br i1 %42, label %43, label %44

43:                                               ; preds = %34
  store i32 1, ptr %6, align 4
  br label %54

44:                                               ; preds = %34
  %45 = load ptr, ptr %4, align 8, !tbaa !317
  %46 = getelementptr inbounds nuw %"struct.arrow::internal::SetBitRun", ptr %8, i32 0, i32 0
  %47 = load i64, ptr %46, align 8, !tbaa !320
  %48 = getelementptr inbounds nuw %"struct.arrow::internal::SetBitRun", ptr %8, i32 0, i32 1
  %49 = load i64, ptr %48, align 8, !tbaa !318
  %50 = call noundef zeroext i1 @_ZZN5arrow12_GLOBAL__N_119RangeDataEqualsImpl5VisitERKNS_11BooleanTypeEENKUlllE_clEll(ptr noundef nonnull align 8 dereferenceable(24) %45, i64 noundef %47, i64 noundef %49)
  br i1 %50, label %53, label %51

51:                                               ; preds = %44
  %52 = getelementptr inbounds nuw %"class.arrow::(anonymous namespace)::RangeDataEqualsImpl", ptr %9, i32 0, i32 8
  store i8 0, ptr %52, align 8, !tbaa !189
  store i32 1, ptr %6, align 4
  br label %54

53:                                               ; preds = %44
  store i32 0, ptr %6, align 4
  br label %54

54:                                               ; preds = %53, %51, %43
  call void @llvm.lifetime.end.p0(i64 16, ptr %8) #20
  %55 = load i32, ptr %6, align 4
  switch i32 %55, label %57 [
    i32 0, label %56
  ]

56:                                               ; preds = %54
  br label %33, !llvm.loop !321

57:                                               ; preds = %54
  call void @llvm.lifetime.end.p0(i64 40, ptr %7) #20
  br label %58

58:                                               ; preds = %57, %15
  call void @llvm.lifetime.end.p0(i64 8, ptr %5) #20
  ret void
}

; Function Attrs: inlinehint mustprogress uwtable
define linkonce_odr noundef ptr @_ZNK5arrow9ArrayData9GetValuesIhEEPKT_il(ptr noundef nonnull align 8 dereferenceable(120) %0, i32 noundef %1, i64 noundef %2) #4 comdat align 2 {
  %4 = alloca ptr, align 8
  %5 = alloca ptr, align 8
  %6 = alloca i32, align 4
  %7 = alloca i64, align 8
  store ptr %0, ptr %5, align 8, !tbaa !144
  store i32 %1, ptr %6, align 4, !tbaa !8
  store i64 %2, ptr %7, align 8, !tbaa !43
  %8 = load ptr, ptr %5, align 8
  %9 = getelementptr inbounds nuw %"struct.arrow::ArrayData", ptr %8, i32 0, i32 4
  %10 = load i32, ptr %6, align 4, !tbaa !8
  %11 = sext i32 %10 to i64
  %12 = call noundef nonnull align 8 dereferenceable(16) ptr @_ZNKSt6vectorISt10shared_ptrIN5arrow6BufferEESaIS3_EEixEm(ptr noundef nonnull align 8 dereferenceable(24) %9, i64 noundef %11) #20
  %13 = call noundef zeroext i1 @_ZNKSt12__shared_ptrIN5arrow6BufferELN9__gnu_cxx12_Lock_policyE2EEcvbEv(ptr noundef nonnull align 8 dereferenceable(16) %12) #20
  br i1 %13, label %14, label %23

14:                                               ; preds = %3
  %15 = getelementptr inbounds nuw %"struct.arrow::ArrayData", ptr %8, i32 0, i32 4
  %16 = load i32, ptr %6, align 4, !tbaa !8
  %17 = sext i32 %16 to i64
  %18 = call noundef nonnull align 8 dereferenceable(16) ptr @_ZNKSt6vectorISt10shared_ptrIN5arrow6BufferEESaIS3_EEixEm(ptr noundef nonnull align 8 dereferenceable(24) %15, i64 noundef %17) #20
  %19 = call noundef ptr @_ZNKSt19__shared_ptr_accessIN5arrow6BufferELN9__gnu_cxx12_Lock_policyE2ELb0ELb0EEptEv(ptr noundef nonnull align 1 dereferenceable(1) %18) #20
  %20 = call noundef ptr @_ZNK5arrow6Buffer4dataEv(ptr noundef nonnull align 8 dereferenceable(80) %19)
  %21 = load i64, ptr %7, align 8, !tbaa !43
  %22 = getelementptr inbounds i8, ptr %20, i64 %21
  store ptr %22, ptr %4, align 8
  br label %24

23:                                               ; preds = %3
  store ptr null, ptr %4, align 8
  br label %24

24:                                               ; preds = %23, %14
  %25 = load ptr, ptr %4, align 8
  ret ptr %25
}

; Function Attrs: mustprogress uwtable
define internal void @_ZN5arrow12_GLOBAL__N_119RangeDataEqualsImpl5VisitERKNS_11BooleanTypeE(ptr dead_on_unwind noalias writable sret(%"class.arrow::Status") align 8 %0, ptr noundef nonnull align 8 dereferenceable(57) %1, ptr noundef nonnull align 8 dereferenceable(72) %2) #1 align 2 {
  %4 = alloca ptr, align 8
  %5 = alloca ptr, align 8
  %6 = alloca ptr, align 8
  %7 = alloca ptr, align 8
  %8 = alloca ptr, align 8
  %9 = alloca %class.anon, align 8
  store ptr %0, ptr %4, align 8
  store ptr %1, ptr %5, align 8, !tbaa !182
  store ptr %2, ptr %6, align 8, !tbaa !221
  %10 = load ptr, ptr %5, align 8
  call void @llvm.lifetime.start.p0(i64 8, ptr %7) #20
  %11 = getelementptr inbounds nuw %"class.arrow::(anonymous namespace)::RangeDataEqualsImpl", ptr %10, i32 0, i32 3
  %12 = load ptr, ptr %11, align 8, !tbaa !190
  %13 = call noundef ptr @_ZNK5arrow9ArrayData9GetValuesIhEEPKT_il(ptr noundef nonnull align 8 dereferenceable(120) %12, i32 noundef 1, i64 noundef 0)
  store ptr %13, ptr %7, align 8, !tbaa !87
  call void @llvm.lifetime.start.p0(i64 8, ptr %8) #20
  %14 = getelementptr inbounds nuw %"class.arrow::(anonymous namespace)::RangeDataEqualsImpl", ptr %10, i32 0, i32 4
  %15 = load ptr, ptr %14, align 8, !tbaa !191
  %16 = call noundef ptr @_ZNK5arrow9ArrayData9GetValuesIhEEPKT_il(ptr noundef nonnull align 8 dereferenceable(120) %15, i32 noundef 1, i64 noundef 0)
  store ptr %16, ptr %8, align 8, !tbaa !87
  call void @llvm.lifetime.start.p0(i64 24, ptr %9) #20
  %17 = getelementptr inbounds nuw %class.anon, ptr %9, i32 0, i32 0
  store ptr %7, ptr %17, align 8, !tbaa !223
  %18 = getelementptr inbounds nuw %class.anon, ptr %9, i32 0, i32 1
  store ptr %10, ptr %18, align 8, !tbaa !225
  %19 = getelementptr inbounds nuw %class.anon, ptr %9, i32 0, i32 2
  store ptr %8, ptr %19, align 8, !tbaa !223
  call void @_ZN5arrow12_GLOBAL__N_119RangeDataEqualsImpl14VisitValidRunsIRZNS1_5VisitERKNS_11BooleanTypeEEUlllE_EEvOT_(ptr noundef nonnull align 8 dereferenceable(57) %10, ptr noundef nonnull align 8 dereferenceable(24) %9)
  call void @_ZN5arrow6Status2OKEv(ptr dead_on_unwind writable sret(%"class.arrow::Status") align 8 %0)
  call void @llvm.lifetime.end.p0(i64 24, ptr %9) #20
  call void @llvm.lifetime.end.p0(i64 8, ptr %8) #20
  call void @llvm.lifetime.end.p0(i64 8, ptr %7) #20
  ret void
}