; Function Attrs: mustprogress uwtable
define internal fastcc void @_ZN5arrow12_GLOBAL__N_119RangeDataEqualsImpl5VisitERKNS_11BooleanTypeE(ptr dead_on_unwind noalias nonnull writable writeonly align 8 captures(none) %0, ptr noundef nonnull align 8 dereferenceable(57) %1) unnamed_addr #1 align 2 {
  %3 = alloca %"class.arrow::internal::BaseSetBitRunReader", align 8
  %4 = alloca ptr, align 8
  %5 = alloca ptr, align 8
  %6 = alloca %class.anon, align 8
  call void @llvm.lifetime.start.p0(i64 8, ptr nonnull %4) #25
  %7 = getelementptr inbounds nuw i8, ptr %1, i64 16
  %8 = load ptr, ptr %7, align 8, !tbaa !646
  %9 = getelementptr inbounds nuw i8, ptr %8, i64 40
  %10 = load ptr, ptr %9, align 8, !tbaa !648
  %11 = getelementptr inbounds nuw i8, ptr %10, i64 16
  %12 = load ptr, ptr %11, align 8, !tbaa !169
  %.not.i = icmp eq ptr %12, null
  br i1 %.not.i, label %_ZNK5arrow9ArrayData9GetValuesIhEEPKT_il.exit, label %13

13:                                               ; preds = %2
  %14 = getelementptr inbounds nuw i8, ptr %12, i64 9
  %15 = load i8, ptr %14, align 1, !tbaa !296, !range !81, !noundef !82
  %16 = trunc nuw i8 %15 to i1
  %17 = getelementptr inbounds nuw i8, ptr %12, i64 16
  %18 = load ptr, ptr %17, align 8
  %19 = select i1 %16, ptr %18, ptr null, !prof !96
  br label %_ZNK5arrow9ArrayData9GetValuesIhEEPKT_il.exit

_ZNK5arrow9ArrayData9GetValuesIhEEPKT_il.exit:    ; preds = %2, %13
  %.0.i = phi ptr [ %19, %13 ], [ null, %2 ]
  store ptr %.0.i, ptr %4, align 8, !tbaa !661
  call void @llvm.lifetime.start.p0(i64 8, ptr nonnull %5) #25
  %20 = getelementptr inbounds nuw i8, ptr %1, i64 24
  %21 = load ptr, ptr %20, align 8, !tbaa !647
  %22 = getelementptr inbounds nuw i8, ptr %21, i64 40
  %23 = load ptr, ptr %22, align 8, !tbaa !648
  %24 = getelementptr inbounds nuw i8, ptr %23, i64 16
  %25 = load ptr, ptr %24, align 8, !tbaa !169
  %.not.i1 = icmp eq ptr %25, null
  br i1 %.not.i1, label %_ZNK5arrow9ArrayData9GetValuesIhEEPKT_il.exit3, label %26

26:                                               ; preds = %_ZNK5arrow9ArrayData9GetValuesIhEEPKT_il.exit
  %27 = getelementptr inbounds nuw i8, ptr %25, i64 9
  %28 = load i8, ptr %27, align 1, !tbaa !296, !range !81, !noundef !82
  %29 = trunc nuw i8 %28 to i1
  %30 = getelementptr inbounds nuw i8, ptr %25, i64 16
  %31 = load ptr, ptr %30, align 8
  %32 = select i1 %29, ptr %31, ptr null, !prof !96
  br label %_ZNK5arrow9ArrayData9GetValuesIhEEPKT_il.exit3

_ZNK5arrow9ArrayData9GetValuesIhEEPKT_il.exit3:   ; preds = %_ZNK5arrow9ArrayData9GetValuesIhEEPKT_il.exit, %26
  %.0.i2 = phi ptr [ %32, %26 ], [ null, %_ZNK5arrow9ArrayData9GetValuesIhEEPKT_il.exit ]
  store ptr %.0.i2, ptr %5, align 8, !tbaa !661
  call void @llvm.lifetime.start.p0(i64 24, ptr nonnull %6) #25
  store ptr %4, ptr %6, align 8, !tbaa !662
  %33 = getelementptr inbounds nuw i8, ptr %6, i64 8
  store ptr %1, ptr %33, align 8, !tbaa !664
  %34 = getelementptr inbounds nuw i8, ptr %6, i64 16
  store ptr %5, ptr %34, align 8, !tbaa !662
  %35 = load ptr, ptr %10, align 8, !tbaa !169
  %.not.i.i = icmp eq ptr %35, null
  br i1 %.not.i.i, label %_ZNK5arrow9ArrayData9GetValuesIhEEPKT_il.exit.thread.i, label %36

36:                                               ; preds = %_ZNK5arrow9ArrayData9GetValuesIhEEPKT_il.exit3
  %37 = getelementptr inbounds nuw i8, ptr %35, i64 9
  %38 = load i8, ptr %37, align 1, !tbaa !296, !range !81, !noundef !82
  %39 = trunc nuw i8 %38 to i1
  %40 = getelementptr inbounds nuw i8, ptr %35, i64 16
  %41 = load ptr, ptr %40, align 8
  %42 = icmp ne ptr %41, null
  %or.cond.not.i = select i1 %39, i1 %42, i1 false
  br i1 %or.cond.not.i, label %48, label %_ZNK5arrow9ArrayData9GetValuesIhEEPKT_il.exit.thread.i, !prof !667

_ZNK5arrow9ArrayData9GetValuesIhEEPKT_il.exit.thread.i: ; preds = %36, %_ZNK5arrow9ArrayData9GetValuesIhEEPKT_il.exit3
  %43 = getelementptr inbounds nuw i8, ptr %1, i64 48
  %44 = load i64, ptr %43, align 8, !tbaa !90
  %45 = call fastcc noundef zeroext i1 @_ZZN5arrow12_GLOBAL__N_119RangeDataEqualsImpl5VisitERKNS_11BooleanTypeEENKUlllE_clEll(ptr noundef nonnull readonly align 8 dereferenceable(24) %6, i64 noundef 0, i64 noundef %44)
  %46 = getelementptr inbounds nuw i8, ptr %1, i64 56
  %47 = zext i1 %45 to i8
  store i8 %47, ptr %46, align 8, !tbaa !91
  br label %_ZN5arrow12_GLOBAL__N_119RangeDataEqualsImpl14VisitValidRunsIRZNS1_5VisitERKNS_11BooleanTypeEEUlllE_EEvOT_.exit

48:                                               ; preds = %36
  call void @llvm.lifetime.start.p0(i64 40, ptr nonnull %3) #25
  %49 = getelementptr inbounds nuw i8, ptr %8, i64 32
  %50 = load i64, ptr %49, align 8, !tbaa !649
  %51 = getelementptr inbounds nuw i8, ptr %1, i64 32
  %52 = load i64, ptr %51, align 8, !tbaa !88
  %53 = add nsw i64 %52, %50
  %54 = getelementptr inbounds nuw i8, ptr %1, i64 48
  %55 = load i64, ptr %54, align 8, !tbaa !90
  call void @_ZN5arrow8internal19BaseSetBitRunReaderILb0EEC2EPKhll(ptr noundef nonnull align 8 dereferenceable(36) %3, ptr noundef nonnull %41, i64 noundef %53, i64 noundef %55)
  br label %56

56:                                               ; preds = %60, %48
  %57 = call { i64, i64 } @_ZN5arrow8internal19BaseSetBitRunReaderILb0EE7NextRunEv(ptr noundef nonnull align 8 dereferenceable(36) %3)
  %58 = extractvalue { i64, i64 } %57, 1
  %59 = icmp eq i64 %58, 0
  br i1 %59, label %.critedge.i, label %60

60:                                               ; preds = %56
  %61 = extractvalue { i64, i64 } %57, 0
  %62 = call fastcc noundef zeroext i1 @_ZZN5arrow12_GLOBAL__N_119RangeDataEqualsImpl5VisitERKNS_11BooleanTypeEENKUlllE_clEll(ptr noundef nonnull readonly align 8 dereferenceable(24) %6, i64 noundef %61, i64 noundef %58)
  br i1 %62, label %56, label %63, !llvm.loop !668

63:                                               ; preds = %60
  %64 = getelementptr inbounds nuw i8, ptr %1, i64 56
  store i8 0, ptr %64, align 8, !tbaa !91
  br label %.critedge.i

.critedge.i:                                      ; preds = %56, %63
  call void @llvm.lifetime.end.p0(i64 40, ptr nonnull %3) #25
  br label %_ZN5arrow12_GLOBAL__N_119RangeDataEqualsImpl14VisitValidRunsIRZNS1_5VisitERKNS_11BooleanTypeEEUlllE_EEvOT_.exit

_ZN5arrow12_GLOBAL__N_119RangeDataEqualsImpl14VisitValidRunsIRZNS1_5VisitERKNS_11BooleanTypeEEUlllE_EEvOT_.exit: ; preds = %_ZNK5arrow9ArrayData9GetValuesIhEEPKT_il.exit.thread.i, %.critedge.i
  store ptr null, ptr %0, align 8, !tbaa !93, !alias.scope !669
  call void @llvm.lifetime.end.p0(i64 24, ptr nonnull %6) #25
  call void @llvm.lifetime.end.p0(i64 8, ptr nonnull %5) #25
  call void @llvm.lifetime.end.p0(i64 8, ptr nonnull %4) #25
  ret void
}